; ModuleID = 'source-C-CXX/33/3171.c'
source_filename = "source-C-CXX/33/3171.c"
target datalayout = "e-m:e-p270:32:32-p271:32:32-p272:64:64-i64:64-f80:128-n8:16:32:64-S128"
target triple = "x86_64-pc-linux-gnu"

@.str = private unnamed_addr constant [3 x i8] c"%d\00", align 1
@.str.1 = private unnamed_addr constant [10 x i8] c"%d/%d=%d\0A\00", align 1
@.str.2 = private unnamed_addr constant [13 x i8] c"%d*%d+%d=%d\0A\00", align 1
@str = private unnamed_addr constant [4 x i8] c"End\00", align 1

; Function Attrs: nofree nounwind sspstrong uwtable
define dso_local i32 @main() local_unnamed_addr #0 {
  %1 = alloca i32, align 4
  %2 = bitcast i32* %1 to i8*
  call void @llvm.lifetime.start.p0i8(i64 4, i8* nonnull %2) #4
  %3 = call i32 (i8*, ...) @__isoc99_scanf(i8* getelementptr inbounds ([3 x i8], [3 x i8]* @.str, i64 0, i64 0), i32* nonnull %1)
  %4 = load i32, i32* %1, align 4, !tbaa !5
  %5 = icmp sgt i32 %4, 1
  br i1 %5, label %6, label %20

6:                                                ; preds = %0, %17
  %7 = phi i32 [ %18, %17 ], [ %4, %0 ]
  %8 = and i32 %7, 1
  %9 = icmp eq i32 %8, 0
  br i1 %9, label %10, label %13

10:                                               ; preds = %6
  %11 = lshr i32 %7, 1
  %12 = call i32 (i8*, ...) @printf(i8* nonnull dereferenceable(1) getelementptr inbounds ([10 x i8], [10 x i8]* @.str.1, i64 0, i64 0), i32 %7, i32 2, i32 %11)
  br label %17

13:                                               ; preds = %6
  %14 = mul nsw i32 %7, 3
  %15 = add nsw i32 %14, 1
  %16 = call i32 (i8*, ...) @printf(i8* nonnull dereferenceable(1) getelementptr inbounds ([13 x i8], [13 x i8]* @.str.2, i64 0, i64 0), i32 %7, i32 3, i32 1, i32 %15)
  br label %17

17:                                               ; preds = %13, %10
  %18 = phi i32 [ %15, %13 ], [ %11, %10 ]
  store i32 %18, i32* %1, align 4, !tbaa !5
  %19 = icmp sgt i32 %18, 1
  br i1 %19, label %6, label %20, !llvm.loop !9

20:                                               ; preds = %17, %0
  %21 = call i32 @puts(i8* nonnull dereferenceable(1) getelementptr inbounds ([4 x i8], [4 x i8]* @str, i64 0, i64 0))
  call void @llvm.lifetime.end.p0i8(i64 4, i8* nonnull %2) #4
  ret i32 0
}

; Function Attrs: argmemonly mustprogress nofree nosync nounwind willreturn
declare void @llvm.lifetime.start.p0i8(i64 immarg, i8* nocapture) #1

; Function Attrs: nofree nounwind
declare noundef i32 @__isoc99_scanf(i8* nocapture noundef readonly, ...) local_unnamed_addr #2

; Function Attrs: nofree nounwind
declare noundef i32 @printf(i8* nocapture noundef readonly, ...) local_unnamed_addr #2

; Function Attrs: argmemonly mustprogress nofree nosync nounwind willreturn
declare void @llvm.lifetime.end.p0i8(i64 immarg, i8* nocapture) #1

; Function Attrs: nofree nounwind
declare noundef i32 @puts(i8* nocapture noundef readonly) local_unnamed_addr #3


!llvm.module.flags = !{!0, !1, !2, !3}
!llvm.ident = !{!4}

!0 = !{i32 1, !"wchar_size", i32 4}
!1 = !{i32 7, !"PIC Level", i32 2}
!2 = !{i32 7, !"PIE Level", i32 2}
!3 = !{i32 7, !"uwtable", i32 1}
!4 = !{!"clang version 13.0.0"}
!5 = !{!6, !6, i64 0}
!6 = !{!"int", !7, i64 0}
!7 = !{!"omnipotent char", !8, i64 0}
!8 = !{!"Simple C/C++ TBAA"}
!9 = distinct !{!9, !10}
!10 = !{!"llvm.loop.mustprogress"}
